; ModuleID = '49/1292.c'
source_filename = "49/1292.c"
target datalayout = "e-m:e-p270:32:32-p271:32:32-p272:64:64-i64:64-f80:128-n8:16:32:64-S128"
target triple = "x86_64-pc-linux-gnu"

@.str = private unnamed_addr constant [3 x i8] c"%c\00", align 1
@.str.1 = private unnamed_addr constant [2 x i8] c"\0A\00", align 1
@.str.2 = private unnamed_addr constant [3 x i8] c"%s\00", align 1

; Function Attrs: noinline nounwind uwtable
define dso_local i32 @jodge(i8* %0, i32 %1, i32 %2) #0 {
  %4 = alloca i32, align 4
  %5 = alloca i8*, align 8
  %6 = alloca i32, align 4
  %7 = alloca i32, align 4
  %8 = alloca i32, align 4
  %9 = alloca i32, align 4
  store i8* %0, i8** %5, align 8
  store i32 %1, i32* %6, align 4
  store i32 %2, i32* %7, align 4
  store i32 0, i32* %9, align 4
  %10 = load i32, i32* %6, align 4
  store i32 %10, i32* %8, align 4
  br label %11

11:                                               ; preds = %44, %3
  %12 = load i32, i32* %8, align 4
  %13 = load i32, i32* %6, align 4
  %14 = load i32, i32* %7, align 4
  %15 = load i32, i32* %6, align 4
  %16 = sub nsw i32 %14, %15
  %17 = add nsw i32 %16, 1
  %18 = sdiv i32 %17, 2
  %19 = add nsw i32 %13, %18
  %20 = icmp slt i32 %12, %19
  br i1 %20, label %21, label %47

21:                                               ; preds = %11
  %22 = load i8*, i8** %5, align 8
  %23 = load i32, i32* %8, align 4
  %24 = sext i32 %23 to i64
  %25 = getelementptr inbounds i8, i8* %22, i64 %24
  %26 = load i8, i8* %25, align 1
  %27 = sext i8 %26 to i32
  %28 = load i8*, i8** %5, align 8
  %29 = load i32, i32* %7, align 4
  %30 = load i32, i32* %6, align 4
  %31 = add nsw i32 %29, %30
  %32 = load i32, i32* %8, align 4
  %33 = sub nsw i32 %31, %32
  %34 = sext i32 %33 to i64
  %35 = getelementptr inbounds i8, i8* %28, i64 %34
  %36 = load i8, i8* %35, align 1
  %37 = sext i8 %36 to i32
  %38 = icmp ne i32 %27, %37
  br i1 %38, label %39, label %40

39:                                               ; preds = %21
  store i32 0, i32* %4, align 4
  br label %57

40:                                               ; preds = %21
  %41 = load i32, i32* %9, align 4
  %42 = add nsw i32 %41, 1
  store i32 %42, i32* %9, align 4
  br label %43

43:                                               ; preds = %40
  br label %44

44:                                               ; preds = %43
  %45 = load i32, i32* %8, align 4
  %46 = add nsw i32 %45, 1
  store i32 %46, i32* %8, align 4
  br label %11

47:                                               ; preds = %11
  %48 = load i32, i32* %9, align 4
  %49 = load i32, i32* %7, align 4
  %50 = load i32, i32* %6, align 4
  %51 = sub nsw i32 %49, %50
  %52 = add nsw i32 %51, 1
  %53 = sdiv i32 %52, 2
  %54 = icmp eq i32 %48, %53
  br i1 %54, label %55, label %56

55:                                               ; preds = %47
  store i32 1, i32* %4, align 4
  br label %57

56:                                               ; preds = %47
  store i32 0, i32* %4, align 4
  br label %57

57:                                               ; preds = %56, %55, %39
  %58 = load i32, i32* %4, align 4
  ret i32 %58
}

; Function Attrs: noinline nounwind uwtable
define dso_local void @f(i8* %0, i32 %1) #0 {
  %3 = alloca i8*, align 8
  %4 = alloca i32, align 4
  %5 = alloca i32, align 4
  %6 = alloca i32, align 4
  %7 = alloca i32, align 4
  store i8* %0, i8** %3, align 8
  store i32 %1, i32* %4, align 4
  store i32 2, i32* %6, align 4
  br label %8

8:                                                ; preds = %56, %2
  %9 = load i32, i32* %6, align 4
  %10 = load i32, i32* %4, align 4
  %11 = icmp sle i32 %9, %10
  br i1 %11, label %12, label %59

12:                                               ; preds = %8
  store i32 0, i32* %5, align 4
  br label %13

13:                                               ; preds = %52, %12
  %14 = load i32, i32* %5, align 4
  %15 = load i32, i32* %4, align 4
  %16 = add nsw i32 %15, 1
  %17 = load i32, i32* %6, align 4
  %18 = sub nsw i32 %16, %17
  %19 = icmp slt i32 %14, %18
  br i1 %19, label %20, label %55

20:                                               ; preds = %13
  %21 = load i8*, i8** %3, align 8
  %22 = load i32, i32* %5, align 4
  %23 = load i32, i32* %5, align 4
  %24 = load i32, i32* %6, align 4
  %25 = add nsw i32 %23, %24
  %26 = sub nsw i32 %25, 1
  %27 = call i32 @jodge(i8* %21, i32 %22, i32 %26)
  %28 = icmp eq i32 %27, 1
  br i1 %28, label %29, label %51

29:                                               ; preds = %20
  %30 = load i32, i32* %5, align 4
  store i32 %30, i32* %7, align 4
  br label %31

31:                                               ; preds = %46, %29
  %32 = load i32, i32* %7, align 4
  %33 = load i32, i32* %5, align 4
  %34 = load i32, i32* %6, align 4
  %35 = add nsw i32 %33, %34
  %36 = sub nsw i32 %35, 1
  %37 = icmp sle i32 %32, %36
  br i1 %37, label %38, label %49

38:                                               ; preds = %31
  %39 = load i8*, i8** %3, align 8
  %40 = load i32, i32* %7, align 4
  %41 = sext i32 %40 to i64
  %42 = getelementptr inbounds i8, i8* %39, i64 %41
  %43 = load i8, i8* %42, align 1
  %44 = sext i8 %43 to i32
  %45 = call i32 (i8*, ...) @printf(i8* getelementptr inbounds ([3 x i8], [3 x i8]* @.str, i64 0, i64 0), i32 %44)
  br label %46

46:                                               ; preds = %38
  %47 = load i32, i32* %7, align 4
  %48 = add nsw i32 %47, 1
  store i32 %48, i32* %7, align 4
  br label %31

49:                                               ; preds = %31
  %50 = call i32 (i8*, ...) @printf(i8* getelementptr inbounds ([2 x i8], [2 x i8]* @.str.1, i64 0, i64 0))
  br label %51

51:                                               ; preds = %49, %20
  br label %52

52:                                               ; preds = %51
  %53 = load i32, i32* %5, align 4
  %54 = add nsw i32 %53, 1
  store i32 %54, i32* %5, align 4
  br label %13

55:                                               ; preds = %13
  br label %56

56:                                               ; preds = %55
  %57 = load i32, i32* %6, align 4
  %58 = add nsw i32 %57, 1
  store i32 %58, i32* %6, align 4
  br label %8

59:                                               ; preds = %8
  ret void
}

declare dso_local i32 @printf(i8*, ...) #1

; Function Attrs: noinline nounwind uwtable
define dso_local i32 @main() #0 {
  %1 = alloca i32, align 4
  %2 = alloca [501 x i8], align 16
  %3 = alloca i32, align 4
  %4 = alloca i32, align 4
  %5 = alloca i32, align 4
  %6 = alloca i32, align 4
  store i32 0, i32* %1, align 4
  %7 = getelementptr inbounds [501 x i8], [501 x i8]* %2, i64 0, i64 0
  %8 = call i32 (i8*, ...) @__isoc99_scanf(i8* getelementptr inbounds ([3 x i8], [3 x i8]* @.str.2, i64 0, i64 0), i8* %7)
  %9 = getelementptr inbounds [501 x i8], [501 x i8]* %2, i64 0, i64 0
  %10 = call i64 @strlen(i8* %9) #3
  %11 = trunc i64 %10 to i32
  store i32 %11, i32* %5, align 4
  %12 = getelementptr inbounds [501 x i8], [501 x i8]* %2, i64 0, i64 0
  %13 = load i32, i32* %5, align 4
  call void @f(i8* %12, i32 %13)
  ret i32 0
}

declare dso_local i32 @__isoc99_scanf(i8*, ...) #1

; Function Attrs: nounwind readonly
declare dso_local i64 @strlen(i8*) #2


!llvm.module.flags = !{!0}
!llvm.ident = !{!1}

!0 = !{i32 1, !"wchar_size", i32 4}
!1 = !{!"clang version 10.0.0-4ubuntu1 "}
